; Function Attrs: mustprogress uwtable
define void @_Z14InitDebugFilesv() local_unnamed_addr #3 personality ptr @__gxx_personality_v0 {
  %1 = alloca %"class.std::__cxx11::basic_string", align 8
  %2 = alloca %"class.std::__cxx11::basic_string", align 8
  %3 = tail call noundef i32 @_ZNK6System10NumThreadsEv(ptr noundef nonnull align 8 dereferenceable(200) @sysdep)
  %.not = icmp eq i32 %3, 0
  br i1 %.not, label %._crit_edge, label %.lr.ph

.lr.ph:                                           ; preds = %0, %6
  %.05 = phi i32 [ %7, %6 ], [ 0, %0 ]
  %4 = call noundef ptr @_ZN6Memory6GetPtrEj(ptr noundef nonnull align 8 dereferenceable(56) @memory, i32 noundef %.05)
  call void @_ZNSt7__cxx119to_stringEj(ptr dead_on_unwind nonnull writable sret(%"class.std::__cxx11::basic_string") align 8 %2, i32 noundef %.05) #17
  %5 = invoke noundef nonnull align 8 dereferenceable(32) ptr @_ZNSt7__cxx1112basic_stringIcSt11char_traitsIcESaIcEE6appendEPKc(ptr noundef nonnull align 8 dereferenceable(32) %2, ptr noundef nonnull @.str.5)
          to label %6 unwind label %10

6:                                                ; preds = %.lr.ph
  call void @_ZNSt7__cxx1112basic_stringIcSt11char_traitsIcESaIcEEC1EOS4_(ptr noundef nonnull align 8 dereferenceable(32) %1, ptr noundef nonnull align 8 dereferenceable(32) %5) #17
  call void @_ZNSt7__cxx1112basic_stringIcSt11char_traitsIcESaIcEED1Ev(ptr noundef nonnull align 8 dereferenceable(32) %2) #17
  call void @_ZNSt7__cxx1112basic_stringIcSt11char_traitsIcESaIcEED1Ev(ptr noundef nonnull align 8 dereferenceable(32) %1) #17
  %7 = add nuw i32 %.05, 1
  %8 = call noundef i32 @_ZNK6System10NumThreadsEv(ptr noundef nonnull align 8 dereferenceable(200) @sysdep)
  %9 = icmp ult i32 %7, %8
  br i1 %9, label %.lr.ph, label %._crit_edge, !llvm.loop !4

10:                                               ; preds = %.lr.ph
  %11 = landingpad { ptr, i32 }
          cleanup
  call void @_ZNSt7__cxx1112basic_stringIcSt11char_traitsIcESaIcEED1Ev(ptr noundef nonnull align 8 dereferenceable(32) %2) #17
  resume { ptr, i32 } %11

._crit_edge:                                      ; preds = %6, %0
  ret void
}